target datalayout = "e-m:e-p270:32:32-p271:32:32-p272:64:64-i64:64-i128:128-f80:128-n8:16:32:64-S128"
target triple = "x86_64-pc-linux-gnu"

%struct.randpkt_example = type { ptr, ptr, i32, i32, ptr, i32, ptr, i32, ptr, ptr, i32 }

; Function Attrs: nounwind null_pointer_is_valid sspstrong uwtable
define hidden i32 @randpkt_example_count() #0 {
  ret i32 23
}

; Function Attrs: null_pointer_is_valid sspstrong uwtable
define hidden void @randpkt_example_list(ptr noundef %0, ptr noundef %1) #1 {
  %3 = alloca ptr, align 8
  %4 = alloca ptr, align 8
  %5 = alloca i32, align 4
  %6 = alloca i32, align 4
  %7 = alloca i64, align 8
  %8 = alloca i64, align 8
  %9 = alloca ptr, align 8
  %10 = alloca ptr, align 8
  %11 = alloca i64, align 8
  %12 = alloca i64, align 8
  %13 = alloca ptr, align 8
  %14 = alloca ptr, align 8
  store ptr %0, ptr %3, align 8
  store ptr %1, ptr %4, align 8
  call void @llvm.lifetime.start.p0(i64 4, ptr %5) #13
  call void @llvm.lifetime.start.p0(i64 4, ptr %6) #13
  %15 = call i32 @randpkt_example_count()
  store i32 %15, ptr %6, align 4
  call void @llvm.lifetime.start.p0(i64 8, ptr %7) #13
  %16 = load i32, ptr %6, align 4
  %17 = add i32 %16, 1
  %18 = zext i32 %17 to i64
  store i64 %18, ptr %7, align 8
  call void @llvm.lifetime.start.p0(i64 8, ptr %8) #13
  store i64 8, ptr %8, align 8
  call void @llvm.lifetime.start.p0(i64 8, ptr %9) #13
  %19 = load i64, ptr %8, align 8
  %20 = icmp eq i64 %19, 1
  br i1 %20, label %21, label %24

21:                                               ; preds = %2
  %22 = load i64, ptr %7, align 8
  %23 = call noalias ptr @g_malloc0(i64 noundef %22) #14
  store ptr %23, ptr %9, align 8
  br label %45

24:                                               ; preds = %2
  %25 = load i64, ptr %7, align 8
  %26 = call i1 @llvm.is.constant.i64(i64 %25)
  br i1 %26, label %27, label %40

27:                                               ; preds = %24
  %28 = load i64, ptr %8, align 8
  %29 = icmp eq i64 %28, 0
  br i1 %29, label %35, label %30

30:                                               ; preds = %27
  %31 = load i64, ptr %7, align 8
  %32 = load i64, ptr %8, align 8
  %33 = udiv i64 -1, %32
  %34 = icmp ule i64 %31, %33
  br i1 %34, label %35, label %40

35:                                               ; preds = %30, %27
  %36 = load i64, ptr %7, align 8
  %37 = load i64, ptr %8, align 8
  %38 = mul i64 %36, %37
  %39 = call noalias ptr @g_malloc0(i64 noundef %38) #14
  store ptr %39, ptr %9, align 8
  br label %44

40:                                               ; preds = %30, %24
  %41 = load i64, ptr %7, align 8
  %42 = load i64, ptr %8, align 8
  %43 = call noalias ptr @g_malloc0_n(i64 noundef %41, i64 noundef %42) #15
  store ptr %43, ptr %9, align 8
  br label %44

44:                                               ; preds = %40, %35
  br label %45

45:                                               ; preds = %44, %21
  %46 = load ptr, ptr %9, align 8
  store ptr %46, ptr %10, align 8
  call void @llvm.lifetime.end.p0(i64 8, ptr %9) #13
  call void @llvm.lifetime.end.p0(i64 8, ptr %8) #13
  call void @llvm.lifetime.end.p0(i64 8, ptr %7) #13
  %47 = load ptr, ptr %10, align 8
  %48 = load ptr, ptr %3, align 8
  store ptr %47, ptr %48, align 8
  call void @llvm.lifetime.start.p0(i64 8, ptr %11) #13
  %49 = load i32, ptr %6, align 4
  %50 = add i32 %49, 1
  %51 = zext i32 %50 to i64
  store i64 %51, ptr %11, align 8
  call void @llvm.lifetime.start.p0(i64 8, ptr %12) #13
  store i64 8, ptr %12, align 8
  call void @llvm.lifetime.start.p0(i64 8, ptr %13) #13
  %52 = load i64, ptr %12, align 8
  %53 = icmp eq i64 %52, 1
  br i1 %53, label %54, label %57

54:                                               ; preds = %45
  %55 = load i64, ptr %11, align 8
  %56 = call noalias ptr @g_malloc0(i64 noundef %55) #14
  store ptr %56, ptr %13, align 8
  br label %78

57:                                               ; preds = %45
  %58 = load i64, ptr %11, align 8
  %59 = call i1 @llvm.is.constant.i64(i64 %58)
  br i1 %59, label %60, label %73

60:                                               ; preds = %57
  %61 = load i64, ptr %12, align 8
  %62 = icmp eq i64 %61, 0
  br i1 %62, label %68, label %63

63:                                               ; preds = %60
  %64 = load i64, ptr %11, align 8
  %65 = load i64, ptr %12, align 8
  %66 = udiv i64 -1, %65
  %67 = icmp ule i64 %64, %66
  br i1 %67, label %68, label %73

68:                                               ; preds = %63, %60
  %69 = load i64, ptr %11, align 8
  %70 = load i64, ptr %12, align 8
  %71 = mul i64 %69, %70
  %72 = call noalias ptr @g_malloc0(i64 noundef %71) #14
  store ptr %72, ptr %13, align 8
  br label %77

73:                                               ; preds = %63, %57
  %74 = load i64, ptr %11, align 8
  %75 = load i64, ptr %12, align 8
  %76 = call noalias ptr @g_malloc0_n(i64 noundef %74, i64 noundef %75) #15
  store ptr %76, ptr %13, align 8
  br label %77

77:                                               ; preds = %73, %68
  br label %78

78:                                               ; preds = %77, %54
  %79 = load ptr, ptr %13, align 8
  store ptr %79, ptr %14, align 8
  call void @llvm.lifetime.end.p0(i64 8, ptr %13) #13
  call void @llvm.lifetime.end.p0(i64 8, ptr %12) #13
  call void @llvm.lifetime.end.p0(i64 8, ptr %11) #13
  %80 = load ptr, ptr %14, align 8
  %81 = load ptr, ptr %4, align 8
  store ptr %80, ptr %81, align 8
  store i32 0, ptr %5, align 4
  br label %82

82:                                               ; preds = %109, %78
  %83 = load i32, ptr %5, align 4
  %84 = load i32, ptr %6, align 4
  %85 = icmp ult i32 %83, %84
  br i1 %85, label %86, label %112

86:                                               ; preds = %82
  %87 = load i32, ptr %5, align 4
  %88 = zext i32 %87 to i64
  %89 = getelementptr [23 x %struct.randpkt_example], ptr @examples, i64 0, i64 %88
  %90 = getelementptr inbounds nuw %struct.randpkt_example, ptr %89, i32 0, i32 0
  %91 = load ptr, ptr %90, align 16
  %92 = call noalias ptr @g_strdup(ptr noundef %91)
  %93 = load ptr, ptr %3, align 8
  %94 = load ptr, ptr %93, align 8
  %95 = load i32, ptr %5, align 4
  %96 = zext i32 %95 to i64
  %97 = getelementptr ptr, ptr %94, i64 %96
  store ptr %92, ptr %97, align 8
  %98 = load i32, ptr %5, align 4
  %99 = zext i32 %98 to i64
  %100 = getelementptr [23 x %struct.randpkt_example], ptr @examples, i64 0, i64 %99
  %101 = getelementptr inbounds nuw %struct.randpkt_example, ptr %100, i32 0, i32 1
  %102 = load ptr, ptr %101, align 8
  %103 = call noalias ptr @g_strdup(ptr noundef %102)
  %104 = load ptr, ptr %4, align 8
  %105 = load ptr, ptr %104, align 8
  %106 = load i32, ptr %5, align 4
  %107 = zext i32 %106 to i64
  %108 = getelementptr ptr, ptr %105, i64 %107
  store ptr %103, ptr %108, align 8
  br label %109

109:                                              ; preds = %86
  %110 = load i32, ptr %5, align 4
  %111 = add i32 %110, 1
  store i32 %111, ptr %5, align 4
  br label %82, !llvm.loop !14

112:                                              ; preds = %82
  call void @llvm.lifetime.end.p0(i64 4, ptr %6) #13
  call void @llvm.lifetime.end.p0(i64 4, ptr %5) #13
  ret void
}