; Function Attrs: null_pointer_is_valid sspstrong uwtable
define hidden void @randpkt_example_list(ptr noundef captures(none) initializes((0, 8)) %0, ptr noundef captures(none) initializes((0, 8)) %1) local_unnamed_addr #1 {
  %3 = tail call noalias dereferenceable_or_null(192) ptr @g_malloc0(i64 noundef 192) #11
  store ptr %3, ptr %0, align 8
  %4 = tail call noalias dereferenceable_or_null(192) ptr @g_malloc0(i64 noundef 192) #11
  store ptr %4, ptr %1, align 8
  br label %5

5:                                                ; preds = %2, %5
  %indvars.iv = phi i64 [ 0, %2 ], [ %indvars.iv.next, %5 ]
  %6 = getelementptr [23 x %struct.randpkt_example], ptr @examples, i64 0, i64 %indvars.iv
  %7 = load ptr, ptr %6, align 16
  %8 = tail call noalias ptr @g_strdup(ptr noundef %7)
  %9 = load ptr, ptr %0, align 8
  %10 = getelementptr ptr, ptr %9, i64 %indvars.iv
  store ptr %8, ptr %10, align 8
  %11 = getelementptr inbounds nuw i8, ptr %6, i64 8
  %12 = load ptr, ptr %11, align 8
  %13 = tail call noalias ptr @g_strdup(ptr noundef %12)
  %14 = load ptr, ptr %1, align 8
  %15 = getelementptr ptr, ptr %14, i64 %indvars.iv
  store ptr %13, ptr %15, align 8
  %indvars.iv.next = add nuw nsw i64 %indvars.iv, 1
  %exitcond.not = icmp eq i64 %indvars.iv.next, 23
  br i1 %exitcond.not, label %16, label %5, !llvm.loop !24

16:                                               ; preds = %5
  ret void
}